target datalayout = "e-m:e-p270:32:32-p271:32:32-p272:64:64-i64:64-i128:128-f80:128-n8:16:32:64-S128"
target triple = "x86_64-pc-linux-gnu"

; Function Attrs: nounwind uwtable
define i32 @wc_RsaPSS_CheckPadding_ex2(ptr noundef %0, i32 noundef %1, ptr noundef %2, i32 noundef %3, i32 noundef %4, i32 noundef %5, i32 noundef %6, ptr noundef %7) #0 {
  %9 = alloca ptr, align 8
  %10 = alloca i32, align 4
  %11 = alloca ptr, align 8
  %12 = alloca i32, align 4
  %13 = alloca i32, align 4
  %14 = alloca i32, align 4
  %15 = alloca i32, align 4
  %16 = alloca ptr, align 8
  %17 = alloca i32, align 4
  %18 = alloca [136 x i8], align 16
  %19 = alloca ptr, align 8
  %20 = alloca i32, align 4
  %21 = alloca ptr, align 8
  store ptr %0, ptr %9, align 8, !tbaa !27
  store i32 %1, ptr %10, align 4, !tbaa !7
  store ptr %2, ptr %11, align 8, !tbaa !27
  store i32 %3, ptr %12, align 4, !tbaa !7
  store i32 %4, ptr %13, align 4, !tbaa !7
  store i32 %5, ptr %14, align 4, !tbaa !7
  store i32 %6, ptr %15, align 4, !tbaa !7
  store ptr %7, ptr %16, align 8, !tbaa !3
  call void @llvm.lifetime.start.p0(i64 4, ptr %17) #8
  store i32 0, ptr %17, align 4, !tbaa !7
  call void @llvm.lifetime.start.p0(i64 136, ptr %18) #8
  call void @llvm.lifetime.start.p0(i64 8, ptr %19) #8
  %22 = getelementptr inbounds [136 x i8], ptr %18, i64 0, i64 0
  store ptr %22, ptr %19, align 8, !tbaa !27
  %23 = load ptr, ptr %9, align 8, !tbaa !27
  %24 = icmp eq ptr %23, null
  br i1 %24, label %33, label %25

25:                                               ; preds = %8
  %26 = load ptr, ptr %11, align 8, !tbaa !27
  %27 = icmp eq ptr %26, null
  br i1 %27, label %33, label %28

28:                                               ; preds = %25
  %29 = load i32, ptr %10, align 4, !tbaa !7
  %30 = load i32, ptr %13, align 4, !tbaa !7
  %31 = call i32 @wc_HashGetDigestSize(i32 noundef %30)
  %32 = icmp ne i32 %29, %31
  br i1 %32, label %33, label %34

33:                                               ; preds = %28, %25, %8
  store i32 -173, ptr %17, align 4, !tbaa !7
  br label %34

34:                                               ; preds = %33, %28
  %35 = load i32, ptr %17, align 4, !tbaa !7
  %36 = icmp eq i32 %35, 0
  br i1 %36, label %37, label %55

37:                                               ; preds = %34
  %38 = load i32, ptr %14, align 4, !tbaa !7
  %39 = icmp eq i32 %38, -1
  br i1 %39, label %40, label %49

40:                                               ; preds = %37
  %41 = load i32, ptr %10, align 4, !tbaa !7
  store i32 %41, ptr %14, align 4, !tbaa !7
  %42 = load i32, ptr %15, align 4, !tbaa !7
  %43 = icmp eq i32 %42, 1024
  br i1 %43, label %44, label %48

44:                                               ; preds = %40
  %45 = load i32, ptr %10, align 4, !tbaa !7
  %46 = icmp eq i32 %45, 64
  br i1 %46, label %47, label %48

47:                                               ; preds = %44
  store i32 62, ptr %14, align 4, !tbaa !7
  br label %48

48:                                               ; preds = %47, %44, %40
  br label %54

49:                                               ; preds = %37
  %50 = load i32, ptr %14, align 4, !tbaa !7
  %51 = icmp slt i32 %50, -1
  br i1 %51, label %52, label %53

52:                                               ; preds = %49
  store i32 -250, ptr %17, align 4, !tbaa !7
  br label %53

53:                                               ; preds = %52, %49
  br label %54

54:                                               ; preds = %53, %48
  br label %55

55:                                               ; preds = %54, %34
  %56 = load i32, ptr %17, align 4, !tbaa !7
  %57 = icmp eq i32 %56, 0
  br i1 %57, label %58, label %77

58:                                               ; preds = %55
  call void @llvm.lifetime.start.p0(i64 4, ptr %20) #8
  %59 = load i32, ptr %14, align 4, !tbaa !7
  %60 = load i32, ptr %10, align 4, !tbaa !7
  %61 = sub i32 -1, %60
  %62 = icmp ule i32 %59, %61
  br i1 %62, label %63, label %67

63:                                               ; preds = %58
  %64 = load i32, ptr %10, align 4, !tbaa !7
  %65 = load i32, ptr %14, align 4, !tbaa !7
  %66 = add i32 %64, %65
  store i32 %66, ptr %20, align 4, !tbaa !7
  br label %68

67:                                               ; preds = %58
  store i32 -1, ptr %20, align 4, !tbaa !7
  br label %68

68:                                               ; preds = %67, %63
  %69 = phi i32 [ 1, %63 ], [ 0, %67 ]
  %70 = icmp eq i32 %69, 0
  br i1 %70, label %75, label %71

71:                                               ; preds = %68
  %72 = load i32, ptr %12, align 4, !tbaa !7
  %73 = load i32, ptr %20, align 4, !tbaa !7
  %74 = icmp ne i32 %72, %73
  br i1 %74, label %75, label %76

75:                                               ; preds = %71, %68
  store i32 -250, ptr %17, align 4, !tbaa !7
  br label %76

76:                                               ; preds = %75, %71
  call void @llvm.lifetime.end.p0(i64 4, ptr %20) #8
  br label %77

77:                                               ; preds = %76, %55
  %78 = load i32, ptr %17, align 4, !tbaa !7
  %79 = icmp eq i32 %78, 0
  br i1 %79, label %80, label %98

80:                                               ; preds = %77
  %81 = load i32, ptr %10, align 4, !tbaa !7
  %82 = add i32 8, %81
  %83 = load i32, ptr %14, align 4, !tbaa !7
  %84 = add i32 %82, %83
  %85 = zext i32 %84 to i64
  %86 = icmp ult i64 136, %85
  br i1 %86, label %87, label %98

87:                                               ; preds = %80
  %88 = load i32, ptr %10, align 4, !tbaa !7
  %89 = add i32 8, %88
  %90 = load i32, ptr %14, align 4, !tbaa !7
  %91 = add i32 %89, %90
  %92 = zext i32 %91 to i64
  %93 = call ptr @wolfSSL_Malloc(i64 noundef %92)
  store ptr %93, ptr %19, align 8, !tbaa !27
  %94 = load ptr, ptr %19, align 8, !tbaa !27
  %95 = icmp eq ptr %94, null
  br i1 %95, label %96, label %97

96:                                               ; preds = %87
  store i32 -125, ptr %17, align 4, !tbaa !7
  br label %97

97:                                               ; preds = %96, %87
  br label %98

98:                                               ; preds = %97, %80, %77
  %99 = load i32, ptr %17, align 4, !tbaa !7
  %100 = icmp eq i32 %99, 0
  br i1 %100, label %101, label %125

101:                                              ; preds = %98
  %102 = load ptr, ptr %19, align 8, !tbaa !27
  call void @llvm.memset.p0.i64(ptr align 1 %102, i8 0, i64 8, i1 false)
  %103 = load ptr, ptr %19, align 8, !tbaa !27
  %104 = getelementptr inbounds i8, ptr %103, i64 8
  %105 = load ptr, ptr %9, align 8, !tbaa !27
  %106 = load i32, ptr %10, align 4, !tbaa !7
  %107 = zext i32 %106 to i64
  call void @llvm.memcpy.p0.p0.i64(ptr align 1 %104, ptr align 1 %105, i64 %107, i1 false)
  %108 = load ptr, ptr %19, align 8, !tbaa !27
  %109 = getelementptr inbounds i8, ptr %108, i64 8
  %110 = load i32, ptr %10, align 4, !tbaa !7
  %111 = zext i32 %110 to i64
  %112 = getelementptr inbounds nuw i8, ptr %109, i64 %111
  %113 = load ptr, ptr %11, align 8, !tbaa !27
  %114 = load i32, ptr %14, align 4, !tbaa !7
  %115 = sext i32 %114 to i64
  call void @llvm.memcpy.p0.p0.i64(ptr align 1 %112, ptr align 1 %113, i64 %115, i1 false)
  %116 = load i32, ptr %13, align 4, !tbaa !7
  %117 = load ptr, ptr %19, align 8, !tbaa !27
  %118 = load i32, ptr %10, align 4, !tbaa !7
  %119 = add i32 8, %118
  %120 = load i32, ptr %14, align 4, !tbaa !7
  %121 = add i32 %119, %120
  %122 = load ptr, ptr %19, align 8, !tbaa !27
  %123 = load i32, ptr %10, align 4, !tbaa !7
  %124 = call i32 @wc_Hash(i32 noundef %116, ptr noundef %117, i32 noundef %121, ptr noundef %122, i32 noundef %123)
  store i32 %124, ptr %17, align 4, !tbaa !7
  br label %125

125:                                              ; preds = %101, %98
  %126 = load i32, ptr %17, align 4, !tbaa !7
  %127 = icmp eq i32 %126, 0
  br i1 %127, label %128, label %143

128:                                              ; preds = %125
  %129 = load ptr, ptr %19, align 8, !tbaa !27
  %130 = load ptr, ptr %11, align 8, !tbaa !27
  %131 = load i32, ptr %14, align 4, !tbaa !7
  %132 = sext i32 %131 to i64
  %133 = getelementptr inbounds i8, ptr %130, i64 %132
  %134 = load i32, ptr %10, align 4, !tbaa !7
  %135 = zext i32 %134 to i64
  %136 = call i32 @memcmp(ptr noundef %129, ptr noundef %133, i64 noundef %135) #9
  %137 = icmp ne i32 %136, 0
  br i1 %137, label %138, label %142

138:                                              ; preds = %128
  br label %139

139:                                              ; preds = %138
  br label %140

140:                                              ; preds = %139
  br label %141

141:                                              ; preds = %140
  store i32 -193, ptr %17, align 4, !tbaa !7
  br label %142

142:                                              ; preds = %141, %128
  br label %143

143:                                              ; preds = %142, %125
  %144 = load ptr, ptr %19, align 8, !tbaa !27
  %145 = icmp ne ptr %144, null
  br i1 %145, label %146, label %160

146:                                              ; preds = %143
  %147 = load ptr, ptr %19, align 8, !tbaa !27
  %148 = getelementptr inbounds [136 x i8], ptr %18, i64 0, i64 0
  %149 = icmp ne ptr %147, %148
  br i1 %149, label %150, label %160

150:                                              ; preds = %146
  br label %151

151:                                              ; preds = %150
  call void @llvm.lifetime.start.p0(i64 8, ptr %21) #8
  %152 = load ptr, ptr %19, align 8, !tbaa !27
  store ptr %152, ptr %21, align 8, !tbaa !3
  %153 = load ptr, ptr %21, align 8, !tbaa !3
  %154 = icmp ne ptr %153, null
  br i1 %154, label %155, label %157

155:                                              ; preds = %151
  %156 = load ptr, ptr %21, align 8, !tbaa !3
  call void @wolfSSL_Free(ptr noundef %156)
  br label %157

157:                                              ; preds = %155, %151
  call void @llvm.lifetime.end.p0(i64 8, ptr %21) #8
  br label %158

158:                                              ; preds = %157
  br label %159

159:                                              ; preds = %158
  br label %160

160:                                              ; preds = %159, %146, %143
  %161 = load i32, ptr %17, align 4, !tbaa !7
  call void @llvm.lifetime.end.p0(i64 8, ptr %19) #8
  call void @llvm.lifetime.end.p0(i64 136, ptr %18) #8
  call void @llvm.lifetime.end.p0(i64 4, ptr %17) #8
  ret i32 %161
}