; Function Attrs: nounwind uwtable
define i32 @wc_RsaPSS_CheckPadding_ex2(ptr noundef readonly captures(address_is_null) %0, i32 noundef %1, ptr noundef readonly captures(address_is_null) %2, i32 noundef %3, i32 noundef %4, i32 noundef %5, i32 noundef %6, ptr readnone captures(none) %7) local_unnamed_addr #0 {
  %9 = alloca [136 x i8], align 16
  call void @llvm.lifetime.start.p0(i64 136, ptr nonnull %9) #12
  %10 = icmp eq ptr %0, null
  %11 = icmp eq ptr %2, null
  %or.cond = or i1 %10, %11
  br i1 %or.cond, label %.thread90.thread, label %12

12:                                               ; preds = %8
  %13 = tail call i32 @wc_HashGetDigestSize(i32 noundef %4) #12
  %.not = icmp eq i32 %1, %13
  br i1 %.not, label %14, label %.thread90.thread

14:                                               ; preds = %12
  %15 = icmp eq i32 %5, -1
  br i1 %15, label %16, label %19

16:                                               ; preds = %14
  %17 = icmp eq i32 %6, 1024
  %18 = icmp eq i32 %1, 64
  %or.cond3 = and i1 %18, %17
  %spec.store.select = select i1 %or.cond3, i32 62, i32 %1
  br label %21

19:                                               ; preds = %14
  %20 = icmp slt i32 %5, -1
  br i1 %20, label %.thread90.thread, label %21

21:                                               ; preds = %16, %19
  %.0 = phi i32 [ %spec.store.select, %16 ], [ %5, %19 ]
  %22 = xor i32 %1, -1
  %.not61 = icmp ule i32 %.0, %22
  %23 = add i32 %.0, %1
  %.054 = select i1 %.not61, i32 %23, i32 -1
  %.not62 = icmp eq i32 %3, %.054
  %or.cond64 = and i1 %.not61, %.not62
  br i1 %or.cond64, label %24, label %.thread90.thread

24:                                               ; preds = %21
  %25 = add i32 %1, 8
  %26 = add i32 %25, %.0
  %27 = icmp ugt i32 %26, 136
  br i1 %27, label %28, label %32

28:                                               ; preds = %24
  %29 = zext i32 %26 to i64
  %30 = tail call ptr @wolfSSL_Malloc(i64 noundef %29) #12
  %31 = icmp eq ptr %30, null
  br i1 %31, label %.thread90.thread, label %32

32:                                               ; preds = %28, %24
  %.055.ph = phi ptr [ %30, %28 ], [ %9, %24 ]
  store i64 0, ptr %.055.ph, align 1
  %33 = getelementptr inbounds nuw i8, ptr %.055.ph, i64 8
  %34 = zext i32 %1 to i64
  call void @llvm.memcpy.p0.p0.i64(ptr nonnull align 1 %33, ptr nonnull align 1 %0, i64 %34, i1 false)
  %35 = getelementptr inbounds nuw i8, ptr %33, i64 %34
  %36 = sext i32 %.0 to i64
  call void @llvm.memcpy.p0.p0.i64(ptr nonnull align 1 %35, ptr nonnull align 1 %2, i64 %36, i1 false)
  %37 = call i32 @wc_Hash(i32 noundef %4, ptr noundef nonnull %.055.ph, i32 noundef %26, ptr noundef nonnull %.055.ph, i32 noundef %1) #12
  %38 = icmp eq i32 %37, 0
  br i1 %38, label %39, label %.thread90

39:                                               ; preds = %32
  %40 = getelementptr inbounds i8, ptr %2, i64 %36
  %bcmp = call i32 @bcmp(ptr nonnull %.055.ph, ptr %40, i64 %34)
  %.not63 = icmp eq i32 %bcmp, 0
  %spec.select67 = select i1 %.not63, i32 0, i32 -193
  br label %.thread90

.thread90:                                        ; preds = %39, %32
  %.6 = phi i32 [ %37, %32 ], [ %spec.select67, %39 ]
  %.not99 = icmp eq ptr %.055.ph, %9
  br i1 %.not99, label %.thread90.thread, label %41

41:                                               ; preds = %.thread90
  call void @wolfSSL_Free(ptr noundef nonnull %.055.ph) #12
  br label %.thread90.thread

.thread90.thread:                                 ; preds = %19, %12, %8, %21, %28, %41, %.thread90
  %.698 = phi i32 [ %.6, %41 ], [ %.6, %.thread90 ], [ -125, %28 ], [ -250, %19 ], [ -173, %8 ], [ -173, %12 ], [ -250, %21 ]
  call void @llvm.lifetime.end.p0(i64 136, ptr nonnull %9) #12
  ret i32 %.698
}